target datalayout = "e-m:e-p270:32:32-p271:32:32-p272:64:64-i64:64-i128:128-f80:128-n8:16:32:64-S128"
target triple = "x86_64-pc-linux-gnu"

@.str.14 = private unnamed_addr constant [23 x i8] c"position out of bounds\00", align 1
@.str.15 = private unnamed_addr constant [38 x i8] c"wrong number of arguments to 'insert'\00", align 1

; Function Attrs: nounwind uwtable
define internal i32 @tinsert(ptr noundef %0) #0 {
  %2 = alloca i32, align 4
  %3 = alloca ptr, align 8
  %4 = alloca i64, align 8
  %5 = alloca i64, align 8
  %6 = alloca i64, align 8
  %7 = alloca i32, align 4
  store ptr %0, ptr %3, align 8, !tbaa !4
  call void @llvm.lifetime.start.p0(i64 8, ptr %4) #4
  call void @llvm.lifetime.start.p0(i64 8, ptr %5) #4
  %8 = load ptr, ptr %3, align 8, !tbaa !4
  call void @checktab(ptr noundef %8, i32 noundef 1, i32 noundef 7)
  %9 = load ptr, ptr %3, align 8, !tbaa !4
  %10 = call i64 @luaL_len(ptr noundef %9, i32 noundef 1)
  store i64 %10, ptr %5, align 8, !tbaa !9
  %11 = load i64, ptr %5, align 8, !tbaa !9
  %12 = add i64 %11, 1
  store i64 %12, ptr %5, align 8, !tbaa !9
  %13 = load ptr, ptr %3, align 8, !tbaa !4
  %14 = call i32 @lua_gettop(ptr noundef %13)
  switch i32 %14, label %50 [
    i32 2, label %15
    i32 3, label %17
  ]

15:                                               ; preds = %1
  %16 = load i64, ptr %5, align 8, !tbaa !9
  store i64 %16, ptr %4, align 8, !tbaa !9
  br label %53

17:                                               ; preds = %1
  call void @llvm.lifetime.start.p0(i64 8, ptr %6) #4
  %18 = load ptr, ptr %3, align 8, !tbaa !4
  %19 = call i64 @luaL_checkinteger(ptr noundef %18, i32 noundef 2)
  store i64 %19, ptr %4, align 8, !tbaa !9
  %20 = load i64, ptr %4, align 8, !tbaa !9
  %21 = sub i64 %20, 1
  %22 = load i64, ptr %5, align 8, !tbaa !9
  %23 = icmp ult i64 %21, %22
  %24 = zext i1 %23 to i32
  %25 = icmp ne i32 %24, 0
  %26 = zext i1 %25 to i32
  %27 = sext i32 %26 to i64
  %28 = call i64 @llvm.expect.i64(i64 %27, i64 1)
  %29 = icmp ne i64 %28, 0
  br i1 %29, label %33, label %30

30:                                               ; preds = %17
  %31 = load ptr, ptr %3, align 8, !tbaa !4
  %32 = call i32 @luaL_argerror(ptr noundef %31, i32 noundef 2, ptr noundef @.str.14)
  br label %33

33:                                               ; preds = %30, %17
  %34 = load i64, ptr %5, align 8, !tbaa !9
  store i64 %34, ptr %6, align 8, !tbaa !9
  br label %35

35:                                               ; preds = %46, %33
  %36 = load i64, ptr %6, align 8, !tbaa !9
  %37 = load i64, ptr %4, align 8, !tbaa !9
  %38 = icmp sgt i64 %36, %37
  br i1 %38, label %39, label %49

39:                                               ; preds = %35
  %40 = load ptr, ptr %3, align 8, !tbaa !4
  %41 = load i64, ptr %6, align 8, !tbaa !9
  %42 = sub nsw i64 %41, 1
  %43 = call i32 @lua_geti(ptr noundef %40, i32 noundef 1, i64 noundef %42)
  %44 = load ptr, ptr %3, align 8, !tbaa !4
  %45 = load i64, ptr %6, align 8, !tbaa !9
  call void @lua_seti(ptr noundef %44, i32 noundef 1, i64 noundef %45)
  br label %46

46:                                               ; preds = %39
  %47 = load i64, ptr %6, align 8, !tbaa !9
  %48 = add nsw i64 %47, -1
  store i64 %48, ptr %6, align 8, !tbaa !9
  br label %35

49:                                               ; preds = %35
  call void @llvm.lifetime.end.p0(i64 8, ptr %6) #4
  br label %53

50:                                               ; preds = %1
  %51 = load ptr, ptr %3, align 8, !tbaa !4
  %52 = call i32 (ptr, ptr, ...) @luaL_error(ptr noundef %51, ptr noundef @.str.15)
  store i32 %52, ptr %2, align 4
  store i32 1, ptr %7, align 4
  br label %56

53:                                               ; preds = %49, %15
  %54 = load ptr, ptr %3, align 8, !tbaa !4
  %55 = load i64, ptr %4, align 8, !tbaa !9
  call void @lua_seti(ptr noundef %54, i32 noundef 1, i64 noundef %55)
  store i32 0, ptr %2, align 4
  store i32 1, ptr %7, align 4
  br label %56

56:                                               ; preds = %53, %50
  call void @llvm.lifetime.end.p0(i64 8, ptr %5) #4
  call void @llvm.lifetime.end.p0(i64 8, ptr %4) #4
  %57 = load i32, ptr %2, align 4
  ret i32 %57
}