; Function Attrs: nounwind uwtable
define internal i32 @tinsert(ptr noundef %0) #0 {
  tail call fastcc void @checktab(ptr noundef %0, i32 noundef 1, i32 noundef 7)
  %2 = tail call i64 @luaL_len(ptr noundef %0, i32 noundef 1) #3
  %3 = add i64 %2, 1
  %4 = tail call i32 @lua_gettop(ptr noundef %0) #3
  switch i32 %4, label %16 [
    i32 2, label %.loopexit
    i32 3, label %5
  ]

5:                                                ; preds = %1
  %6 = tail call i64 @luaL_checkinteger(ptr noundef %0, i32 noundef 2) #3
  %7 = add i64 %6, -1
  %8 = icmp ult i64 %7, %3
  br i1 %8, label %11, label %9, !prof !9

9:                                                ; preds = %5
  %10 = tail call i32 @luaL_argerror(ptr noundef %0, i32 noundef 2, ptr noundef nonnull @.str.14) #3
  br label %11

11:                                               ; preds = %9, %5
  %12 = icmp sgt i64 %3, %6
  br i1 %12, label %.lr.ph, label %.loopexit

.lr.ph:                                           ; preds = %11, %.lr.ph
  %.023 = phi i64 [ %13, %.lr.ph ], [ %3, %11 ]
  %13 = add nsw i64 %.023, -1
  %14 = tail call i32 @lua_geti(ptr noundef %0, i32 noundef 1, i64 noundef %13) #3
  tail call void @lua_seti(ptr noundef %0, i32 noundef 1, i64 noundef %.023) #3
  %15 = icmp sgt i64 %13, %6
  br i1 %15, label %.lr.ph, label %.loopexit

16:                                               ; preds = %1
  %17 = tail call i32 (ptr, ptr, ...) @luaL_error(ptr noundef %0, ptr noundef nonnull @.str.15) #3
  br label %18

.loopexit:                                        ; preds = %.lr.ph, %11, %1
  %.020 = phi i64 [ %3, %1 ], [ %6, %11 ], [ %6, %.lr.ph ]
  tail call void @lua_seti(ptr noundef %0, i32 noundef 1, i64 noundef %.020) #3
  br label %18

18:                                               ; preds = %.loopexit, %16
  %.021 = phi i32 [ %17, %16 ], [ 0, %.loopexit ]
  ret i32 %.021
}